target datalayout = "e-m:e-p270:32:32-p271:32:32-p272:64:64-i64:64-i128:128-f80:128-n8:16:32:64-S128"
target triple = "x86_64-pc-linux-gnu"

%class.inputStream = type { ptr, ptr, i32, i8, ptr, i64, i64, i64, i64, i64, i64, [240 x i8] }

; Function Attrs: mustprogress nounwind uwtable
define hidden noundef zeroext i1 @_ZN11inputStream13expand_bufferEm(ptr noundef nonnull align 8 dereferenceable(320) %0, i64 noundef %1) #1 align 2 {
  %3 = alloca i1, align 1
  %4 = alloca ptr, align 8
  %5 = alloca i64, align 8
  %6 = alloca ptr, align 8
  store ptr %0, ptr %4, align 8
  store i64 %1, ptr %5, align 8
  %7 = load ptr, ptr %4, align 8
  store ptr null, ptr %6, align 8
  %8 = getelementptr inbounds %class.inputStream, ptr %7, i32 0, i32 4
  %9 = load ptr, ptr %8, align 8
  %10 = getelementptr inbounds %class.inputStream, ptr %7, i32 0, i32 11
  %11 = getelementptr inbounds [240 x i8], ptr %10, i64 0, i64 0
  %12 = icmp eq ptr %9, %11
  br i1 %12, label %13, label %27

13:                                               ; preds = %2
  %14 = load i64, ptr %5, align 8
  %15 = mul i64 %14, 1
  %16 = call noundef ptr @_Z12AllocateHeapm8MEMFLAGSN17AllocFailStrategy13AllocFailEnumE(i64 noundef %15, i8 noundef zeroext 9, i32 noundef 0)
  store ptr %16, ptr %6, align 8
  %17 = getelementptr inbounds %class.inputStream, ptr %7, i32 0, i32 6
  %18 = load i64, ptr %17, align 8
  %19 = icmp ugt i64 %18, 0
  br i1 %19, label %20, label %26

20:                                               ; preds = %13
  %21 = load ptr, ptr %6, align 8
  %22 = getelementptr inbounds %class.inputStream, ptr %7, i32 0, i32 4
  %23 = load ptr, ptr %22, align 8
  %24 = getelementptr inbounds %class.inputStream, ptr %7, i32 0, i32 6
  %25 = load i64, ptr %24, align 8
  call void @llvm.memcpy.p0.p0.i64(ptr align 1 %21, ptr align 1 %23, i64 %25, i1 false)
  br label %26

26:                                               ; preds = %20, %13
  br label %33

27:                                               ; preds = %2
  %28 = getelementptr inbounds %class.inputStream, ptr %7, i32 0, i32 4
  %29 = load ptr, ptr %28, align 8
  %30 = load i64, ptr %5, align 8
  %31 = mul i64 %30, 1
  %32 = call noundef ptr @_Z14ReallocateHeapPcm8MEMFLAGSN17AllocFailStrategy13AllocFailEnumE(ptr noundef %29, i64 noundef %31, i8 noundef zeroext 9, i32 noundef 0)
  store ptr %32, ptr %6, align 8
  br label %33

33:                                               ; preds = %27, %26
  %34 = load ptr, ptr %6, align 8
  %35 = icmp eq ptr %34, null
  br i1 %35, label %36, label %37

36:                                               ; preds = %33
  store i1 false, ptr %3, align 1
  br label %42

37:                                               ; preds = %33
  %38 = load ptr, ptr %6, align 8
  %39 = getelementptr inbounds %class.inputStream, ptr %7, i32 0, i32 4
  store ptr %38, ptr %39, align 8
  %40 = load i64, ptr %5, align 8
  %41 = getelementptr inbounds %class.inputStream, ptr %7, i32 0, i32 5
  store i64 %40, ptr %41, align 8
  store i1 true, ptr %3, align 1
  br label %42

42:                                               ; preds = %37, %36
  %43 = load i1, ptr %3, align 1
  ret i1 %43
}