; Function Attrs: mustprogress nounwind uwtable
define hidden noundef zeroext i1 @_ZN11inputStream13expand_bufferEm(ptr noundef nonnull align 8 dereferenceable(320) %0, i64 noundef %1) local_unnamed_addr #0 align 2 {
  %3 = getelementptr inbounds i8, ptr %0, i64 24
  %4 = load ptr, ptr %3, align 8
  %5 = getelementptr inbounds i8, ptr %0, i64 80
  %6 = icmp eq ptr %4, %5
  br i1 %6, label %7, label %13

7:                                                ; preds = %2
  %8 = tail call noundef ptr @_Z12AllocateHeapm8MEMFLAGSN17AllocFailStrategy13AllocFailEnumE(i64 noundef %1, i8 noundef zeroext 9, i32 noundef 0) #10
  %9 = getelementptr inbounds i8, ptr %0, i64 40
  %10 = load i64, ptr %9, align 8
  %.not = icmp eq i64 %10, 0
  br i1 %.not, label %15, label %11

11:                                               ; preds = %7
  %12 = load ptr, ptr %3, align 8
  tail call void @llvm.memcpy.p0.p0.i64(ptr align 1 %8, ptr align 1 %12, i64 %10, i1 false)
  br label %15

13:                                               ; preds = %2
  %14 = tail call noundef ptr @_Z14ReallocateHeapPcm8MEMFLAGSN17AllocFailStrategy13AllocFailEnumE(ptr noundef %4, i64 noundef %1, i8 noundef zeroext 9, i32 noundef 0) #10
  br label %15

15:                                               ; preds = %7, %11, %13
  %.0 = phi ptr [ %8, %11 ], [ %8, %7 ], [ %14, %13 ]
  %16 = icmp ne ptr %.0, null
  br i1 %16, label %17, label %19

17:                                               ; preds = %15
  store ptr %.0, ptr %3, align 8
  %18 = getelementptr inbounds i8, ptr %0, i64 32
  store i64 %1, ptr %18, align 8
  br label %19

19:                                               ; preds = %15, %17
  ret i1 %16
}